target datalayout = "e-m:e-p270:32:32-p271:32:32-p272:64:64-i64:64-i128:128-f80:128-n8:16:32:64-S128"
target triple = "x86_64-pc-linux-gnu"

%"class.llvm::pdb::LinePrinter" = type { ptr, i32, i32, i8, ptr, %"class.std::__cxx11::list", %"class.std::__cxx11::list", %"class.std::__cxx11::list", %"class.std::__cxx11::list", %"class.std::__cxx11::list", %"class.std::__cxx11::list" }
%"class.std::__cxx11::list" = type { %"class.std::__cxx11::_List_base" }
%"class.std::__cxx11::_List_base" = type { %"struct.std::__cxx11::_List_base<llvm::Regex, std::allocator<llvm::Regex>>::_List_impl" }
%"struct.std::__cxx11::_List_base<llvm::Regex, std::allocator<llvm::Regex>>::_List_impl" = type { %"struct.std::__detail::_List_node_header" }
%"struct.std::__detail::_List_node_header" = type { %"struct.std::__detail::_List_node_base", i64 }
%"struct.std::__detail::_List_node_base" = type { ptr, ptr }

; Function Attrs: mustprogress nounwind uwtable
define linkonce_odr noundef nonnull align 4 dereferenceable(4) ptr @_ZSt3maxIiERKT_S2_S2_(ptr noundef nonnull align 4 dereferenceable(4) %0, ptr noundef nonnull align 4 dereferenceable(4) %1) #0 comdat {
  %3 = alloca ptr, align 8
  %4 = alloca ptr, align 8
  %5 = alloca ptr, align 8
  store ptr %0, ptr %4, align 8
  store ptr %1, ptr %5, align 8
  %6 = load ptr, ptr %4, align 8
  %7 = load i32, ptr %6, align 4
  %8 = load ptr, ptr %5, align 8
  %9 = load i32, ptr %8, align 4
  %10 = icmp slt i32 %7, %9
  br i1 %10, label %11, label %13

11:                                               ; preds = %2
  %12 = load ptr, ptr %5, align 8
  store ptr %12, ptr %3, align 8
  br label %15

13:                                               ; preds = %2
  %14 = load ptr, ptr %4, align 8
  store ptr %14, ptr %3, align 8
  br label %15

15:                                               ; preds = %13, %11
  %16 = load ptr, ptr %3, align 8
  ret ptr %16
}

; Function Attrs: mustprogress nounwind uwtable
define dso_local void @_ZN4llvm3pdb11LinePrinter8UnindentEj(ptr noundef nonnull align 8 dereferenceable(176) %0, i32 noundef %1) #0 align 2 {
  %3 = alloca ptr, align 8
  %4 = alloca i32, align 4
  %5 = alloca i32, align 4
  %6 = alloca i32, align 4
  store ptr %0, ptr %3, align 8
  store i32 %1, ptr %4, align 4
  %7 = load ptr, ptr %3, align 8
  %8 = load i32, ptr %4, align 4
  %9 = icmp eq i32 %8, 0
  br i1 %9, label %10, label %13

10:                                               ; preds = %2
  %11 = getelementptr inbounds nuw %"class.llvm::pdb::LinePrinter", ptr %7, i32 0, i32 1
  %12 = load i32, ptr %11, align 8
  store i32 %12, ptr %4, align 4
  br label %13

13:                                               ; preds = %10, %2
  store i32 0, ptr %5, align 4
  %14 = getelementptr inbounds nuw %"class.llvm::pdb::LinePrinter", ptr %7, i32 0, i32 2
  %15 = load i32, ptr %14, align 4
  %16 = load i32, ptr %4, align 4
  %17 = sub i32 %15, %16
  store i32 %17, ptr %6, align 4
  %18 = call noundef nonnull align 4 dereferenceable(4) ptr @_ZSt3maxIiERKT_S2_S2_(ptr noundef nonnull align 4 dereferenceable(4) %5, ptr noundef nonnull align 4 dereferenceable(4) %6)
  %19 = load i32, ptr %18, align 4
  %20 = getelementptr inbounds nuw %"class.llvm::pdb::LinePrinter", ptr %7, i32 0, i32 2
  store i32 %19, ptr %20, align 4
  ret void
}