; Function Attrs: mustprogress nofree norecurse nosync nounwind willreturn memory(argmem: readwrite) uwtable
define dso_local void @_ZN4llvm3pdb11LinePrinter8UnindentEj(ptr noundef nonnull align 8 captures(none) dereferenceable(176) %0, i32 noundef %1) local_unnamed_addr #1 align 2 {
  %3 = icmp eq i32 %1, 0
  %4 = getelementptr inbounds nuw i8, ptr %0, i64 8
  %5 = load i32, ptr %4, align 8
  %.0 = select i1 %3, i32 %5, i32 %1
  %6 = getelementptr inbounds nuw i8, ptr %0, i64 12
  %7 = load i32, ptr %6, align 4
  %8 = sub i32 %7, %.0
  %.sroa.speculated = tail call i32 @llvm.smax.i32(i32 %8, i32 0)
  store i32 %.sroa.speculated, ptr %6, align 4
  ret void
}